


ARM Macro Assembler    Page 1 


    1 00000000         ; generated by Component: ARM Compiler 5.06 update 4 (bu
                       ild 422) Tool: ArmCC [4d3604]
    2 00000000         ; commandline ArmCC [--c99 --split_sections --debug -c -
                       S -o..\..\output\bsp_spi_flash.s --depend=..\..\output\b
                       sp_spi_flash.d --cpu=Cortex-M4.fp --apcs=interwork -O1 -
                       -diag_suppress=9931 -I..\..\Libraries\CMSIS\Device\ST\ST
                       M32F4xx\Include -I..\..\Libraries\CMSIS\Include -I..\..\
                       Libraries\STM32F4xx_StdPeriph_Driver\inc -I..\..\User -I
                       E:\Synchronization\CodeProject\GitHub\Defond\Battery_Det
                       ection\Software\EmbedSoftware\STM32F429_NewProject_templ
                       ate\Project\RVMDK£¨uv5£©\RTE\_New_Project_Template -ID:\
                       Keil_v5_for_ARM\ARM\PACK\Keil\STM32F4xx_DFP\2.10.0\Drive
                       rs\CMSIS\Device\ST\STM32F4xx\Include -ID:\Keil_v5_for_AR
                       M\ARM\CMSIS\Include -D__MICROLIB -D__UVISION_VERSION=522
                        -DSTM32F429xx -DUSE_STDPERIPH_DRIVER -DSTM32F429_439xx 
                       --omf_browse=..\..\output\bsp_spi_flash.crf ..\..\User\b
                       sp\spi\bsp_spi_flash.c]
    3 00000000                 THUMB
    4 00000000                 REQUIRE8
    5 00000000                 PRESERVE8
    6 00000000         
    7 00000000                 AREA             ||i.SPI_FLASH_BufferRead||, COD
E, READONLY, ALIGN=2
    8 00000000         
    9 00000000         SPI_FLASH_BufferRead
                               PROC
   10 00000000 E92D 41F0       PUSH             {r4-r8,lr}
   11 00000004 4604            MOV              r4,r0
   12 00000006 4688            MOV              r8,r1
   13 00000008 4615            MOV              r5,r2
   14 0000000A 4F0F            LDR              r7,|L0.72|
   15 0000000C 2610            MOVS             r6,#0x10
   16 0000000E 837E            STRH             r6,[r7,#0x1a]
   17 00000010 2003            MOVS             r0,#3
   18 00000012 F7FF FFFE       BL               SPI_FLASH_SendByte
   19 00000016 F3C8 4007       UBFX             r0,r8,#16,#8
   20 0000001A F7FF FFFE       BL               SPI_FLASH_SendByte
   21 0000001E F3C8 2007       UBFX             r0,r8,#8,#8
   22 00000022 F7FF FFFE       BL               SPI_FLASH_SendByte
   23 00000026 F008 00FF       AND              r0,r8,#0xff
   24 0000002A F7FF FFFE       BL               SPI_FLASH_SendByte
   25 0000002E E004            B                |L0.58|
   26 00000030         |L0.48|
   27 00000030 20FF            MOVS             r0,#0xff
   28 00000032 F7FF FFFE       BL               SPI_FLASH_SendByte
   29 00000036 F804 0B01       STRB             r0,[r4],#1
   30 0000003A         |L0.58|
   31 0000003A 1E6D            SUBS             r5,r5,#1
   32 0000003C B2AD            UXTH             r5,r5
   33 0000003E D2F7            BCS              |L0.48|
   34 00000040 833E            STRH             r6,[r7,#0x18]
   35 00000042 E8BD 81F0       POP              {r4-r8,pc}
   36 00000046                 ENDP
   37 00000046         
   38 00000046 00 00           DCW              0x0000
   39 00000048         |L0.72|
   40 00000048 40020000        DCD              0x40020000
   41 0000004C         
   42 0000004C                 AREA             ||i.SPI_FLASH_BufferWrite||, CO



ARM Macro Assembler    Page 2 


DE, READONLY, ALIGN=1
   43 00000000         
   44 00000000         SPI_FLASH_BufferWrite
                               PROC
   45 00000000 E92D 47F0       PUSH             {r4-r10,lr}
   46 00000004 4606            MOV              r6,r0
   47 00000006 460D            MOV              r5,r1
   48 00000008 B2E8            UXTB             r0,r5
   49 0000000A 4241            RSBS             r1,r0,#0
   50 0000000C B2CF            UXTB             r7,r1
   51 0000000E 0A14            LSRS             r4,r2,#8
   52 00000010 F002 09FF       AND              r9,r2,#0xff
   53 00000014 F44F 7880       MOV              r8,#0x100
   54 00000018 2800            CMP              r0,#0
   55 0000001A D012            BEQ              |L1.66|
   56 0000001C B2E8            UXTB             r0,r5
   57 0000001E 4240            RSBS             r0,r0,#0
   58 00000020 B2C0            UXTB             r0,r0
   59 00000022 EB05 0A00       ADD              r10,r5,r0
   60 00000026 B334            CBZ              r4,|L1.118|
   61 00000028 1BD0            SUBS             r0,r2,r7
   62 0000002A B280            UXTH             r0,r0
   63 0000002C 0A04            LSRS             r4,r0,#8
   64 0000002E F000 09FF       AND              r9,r0,#0xff
   65 00000032 463A            MOV              r2,r7
   66 00000034 4629            MOV              r1,r5
   67 00000036 4630            MOV              r0,r6
   68 00000038 F7FF FFFE       BL               SPI_FLASH_PageWrite
   69 0000003C 4655            MOV              r5,r10
   70 0000003E 443E            ADD              r6,r6,r7
   71 00000040 E039            B                |L1.182|
   72 00000042         |L1.66|
   73 00000042 B974            CBNZ             r4,|L1.98|
   74 00000044 4629            MOV              r1,r5
   75 00000046 4630            MOV              r0,r6
   76 00000048 E8BD 47F0       POP              {r4-r10,lr}
   77 0000004C F7FF BFFE       B.W              SPI_FLASH_PageWrite
   78 00000050         |L1.80|
   79 00000050 4642            MOV              r2,r8
   80 00000052 4629            MOV              r1,r5
   81 00000054 4630            MOV              r0,r6
   82 00000056 F7FF FFFE       BL               SPI_FLASH_PageWrite
   83 0000005A F505 7580       ADD              r5,r5,#0x100
   84 0000005E F506 7680       ADD              r6,r6,#0x100
   85 00000062         |L1.98|
   86 00000062 1E64            SUBS             r4,r4,#1
   87 00000064 B2E4            UXTB             r4,r4
   88 00000066 D2F3            BCS              |L1.80|
   89 00000068 464A            MOV              r2,r9
   90 0000006A 4629            MOV              r1,r5
   91 0000006C 4630            MOV              r0,r6
   92 0000006E E8BD 47F0       POP              {r4-r10,lr}
   93 00000072 F7FF BFFE       B.W              SPI_FLASH_PageWrite
   94 00000076         |L1.118|
   95 00000076 45B9            CMP              r9,r7
   96 00000078 D90E            BLS              |L1.152|
   97 0000007A EBA9 0007       SUB              r0,r9,r7
   98 0000007E B2C4            UXTB             r4,r0
   99 00000080 463A            MOV              r2,r7



ARM Macro Assembler    Page 3 


  100 00000082 4629            MOV              r1,r5
  101 00000084 4630            MOV              r0,r6
  102 00000086 F7FF FFFE       BL               SPI_FLASH_PageWrite
  103 0000008A 4651            MOV              r1,r10
  104 0000008C 19F0            ADDS             r0,r6,r7
  105 0000008E 4622            MOV              r2,r4
  106 00000090 E8BD 47F0       POP              {r4-r10,lr}
  107 00000094 F7FF BFFE       B.W              SPI_FLASH_PageWrite
  108 00000098         |L1.152|
  109 00000098 4629            MOV              r1,r5
  110 0000009A 4630            MOV              r0,r6
  111 0000009C E8BD 47F0       POP              {r4-r10,lr}
  112 000000A0 F7FF BFFE       B.W              SPI_FLASH_PageWrite
  113 000000A4         |L1.164|
  114 000000A4 4642            MOV              r2,r8
  115 000000A6 4629            MOV              r1,r5
  116 000000A8 4630            MOV              r0,r6
  117 000000AA F7FF FFFE       BL               SPI_FLASH_PageWrite
  118 000000AE F505 7580       ADD              r5,r5,#0x100
  119 000000B2 F506 7680       ADD              r6,r6,#0x100
  120 000000B6         |L1.182|
  121 000000B6 1E64            SUBS             r4,r4,#1
  122 000000B8 B2E4            UXTB             r4,r4
  123 000000BA D2F3            BCS              |L1.164|
  124 000000BC F1B9 0F00       CMP              r9,#0
  125 000000C0 D006            BEQ              |L1.208|
  126 000000C2 464A            MOV              r2,r9
  127 000000C4 4629            MOV              r1,r5
  128 000000C6 4630            MOV              r0,r6
  129 000000C8 E8BD 47F0       POP              {r4-r10,lr}
  130 000000CC F7FF BFFE       B.W              SPI_FLASH_PageWrite
  131 000000D0         |L1.208|
  132 000000D0 E8BD 87F0       POP              {r4-r10,pc}
  133 000000D4                 ENDP
  134 000000D4         
  135 000000D4         
  136 000000D4                 AREA             ||i.SPI_FLASH_BulkErase||, CODE
, READONLY, ALIGN=2
  137 00000000         
  138 00000000         SPI_FLASH_BulkErase
                               PROC
  139 00000000 B570            PUSH             {r4-r6,lr}
  140 00000002 F7FF FFFE       BL               SPI_FLASH_WriteEnable
  141 00000006 4C05            LDR              r4,|L2.28|
  142 00000008 2510            MOVS             r5,#0x10
  143 0000000A 8365            STRH             r5,[r4,#0x1a]
  144 0000000C 20C7            MOVS             r0,#0xc7
  145 0000000E F7FF FFFE       BL               SPI_FLASH_SendByte
  146 00000012 8325            STRH             r5,[r4,#0x18]
  147 00000014 E8BD 4070       POP              {r4-r6,lr}
  148 00000018 F7FF BFFE       B.W              SPI_FLASH_WaitForWriteEnd
  149 0000001C                 ENDP
  150 0000001C         
  151 0000001C         |L2.28|
  152 0000001C 40020000        DCD              0x40020000
  153 00000020         
  154 00000020                 AREA             ||i.SPI_FLASH_Init||, CODE, REA
DONLY, ALIGN=2
  155 00000000         



ARM Macro Assembler    Page 4 


  156 00000000         SPI_FLASH_Init
                               PROC
  157 00000000 E92D 41F0       PUSH             {r4-r8,lr}
  158 00000004 B088            SUB              sp,sp,#0x20
  159 00000006 2101            MOVS             r1,#1
  160 00000008 2003            MOVS             r0,#3
  161 0000000A F7FF FFFE       BL               RCC_AHB1PeriphClockCmd
  162 0000000E 2101            MOVS             r1,#1
  163 00000010 03C8            LSLS             r0,r1,#15
  164 00000012 F7FF FFFE       BL               RCC_APB2PeriphClockCmd
  165 00000016 4F2D            LDR              r7,|L3.204|
  166 00000018 2206            MOVS             r2,#6
  167 0000001A 2103            MOVS             r1,#3
  168 0000001C 4638            MOV              r0,r7
  169 0000001E F7FF FFFE       BL               GPIO_PinAFConfig
  170 00000022 2206            MOVS             r2,#6
  171 00000024 2104            MOVS             r1,#4
  172 00000026 4638            MOV              r0,r7
  173 00000028 F7FF FFFE       BL               GPIO_PinAFConfig
  174 0000002C 2206            MOVS             r2,#6
  175 0000002E 2105            MOVS             r1,#5
  176 00000030 4638            MOV              r0,r7
  177 00000032 F7FF FFFE       BL               GPIO_PinAFConfig
  178 00000036 2008            MOVS             r0,#8
  179 00000038 9001            STR              r0,[sp,#4]
  180 0000003A 2502            MOVS             r5,#2
  181 0000003C F88D 5009       STRB             r5,[sp,#9]
  182 00000040 F88D 5008       STRB             r5,[sp,#8]
  183 00000044 2400            MOVS             r4,#0
  184 00000046 F88D 400A       STRB             r4,[sp,#0xa]
  185 0000004A F88D 400B       STRB             r4,[sp,#0xb]
  186 0000004E A901            ADD              r1,sp,#4
  187 00000050 4638            MOV              r0,r7
  188 00000052 F7FF FFFE       BL               GPIO_Init
  189 00000056 2610            MOVS             r6,#0x10
  190 00000058 9601            STR              r6,[sp,#4]
  191 0000005A A901            ADD              r1,sp,#4
  192 0000005C 4638            MOV              r0,r7
  193 0000005E F7FF FFFE       BL               GPIO_Init
  194 00000062 2020            MOVS             r0,#0x20
  195 00000064 9001            STR              r0,[sp,#4]
  196 00000066 A901            ADD              r1,sp,#4
  197 00000068 4638            MOV              r0,r7
  198 0000006A F7FF FFFE       BL               GPIO_Init
  199 0000006E 9601            STR              r6,[sp,#4]
  200 00000070 2701            MOVS             r7,#1
  201 00000072 F88D 7008       STRB             r7,[sp,#8]
  202 00000076 F8DF 8058       LDR              r8,|L3.208|
  203 0000007A A901            ADD              r1,sp,#4
  204 0000007C 4640            MOV              r0,r8
  205 0000007E F7FF FFFE       BL               GPIO_Init
  206 00000082 F8A8 6018       STRH             r6,[r8,#0x18]
  207 00000086 F8AD 400C       STRH             r4,[sp,#0xc]
  208 0000008A F44F 7082       MOV              r0,#0x104
  209 0000008E F8AD 000E       STRH             r0,[sp,#0xe]
  210 00000092 F8AD 4010       STRH             r4,[sp,#0x10]
  211 00000096 F8AD 5012       STRH             r5,[sp,#0x12]
  212 0000009A F8AD 7014       STRH             r7,[sp,#0x14]
  213 0000009E 0228            LSLS             r0,r5,#8



ARM Macro Assembler    Page 5 


  214 000000A0 F8AD 0016       STRH             r0,[sp,#0x16]
  215 000000A4 2028            MOVS             r0,#0x28
  216 000000A6 F8AD 0018       STRH             r0,[sp,#0x18]
  217 000000AA F8AD 401A       STRH             r4,[sp,#0x1a]
  218 000000AE 2007            MOVS             r0,#7
  219 000000B0 F8AD 001C       STRH             r0,[sp,#0x1c]
  220 000000B4 4C07            LDR              r4,|L3.212|
  221 000000B6 A903            ADD              r1,sp,#0xc
  222 000000B8 4620            MOV              r0,r4
  223 000000BA F7FF FFFE       BL               SPI_Init
  224 000000BE 2101            MOVS             r1,#1
  225 000000C0 4620            MOV              r0,r4
  226 000000C2 F7FF FFFE       BL               SPI_Cmd
  227 000000C6 B008            ADD              sp,sp,#0x20
  228 000000C8 E8BD 81F0       POP              {r4-r8,pc}
  229 000000CC                 ENDP
  230 000000CC         
  231 000000CC         |L3.204|
  232 000000CC 40020400        DCD              0x40020400
  233 000000D0         |L3.208|
  234 000000D0 40020000        DCD              0x40020000
  235 000000D4         |L3.212|
  236 000000D4 40003C00        DCD              0x40003c00
  237 000000D8         
  238 000000D8                 AREA             ||i.SPI_FLASH_PageWrite||, CODE
, READONLY, ALIGN=2
  239 00000000         
  240 00000000         SPI_FLASH_PageWrite
                               PROC
  241 00000000 E92D 41F0       PUSH             {r4-r8,lr}
  242 00000004 4605            MOV              r5,r0
  243 00000006 4688            MOV              r8,r1
  244 00000008 4614            MOV              r4,r2
  245 0000000A F7FF FFFE       BL               SPI_FLASH_WriteEnable
  246 0000000E 4F13            LDR              r7,|L4.92|
  247 00000010 2610            MOVS             r6,#0x10
  248 00000012 837E            STRH             r6,[r7,#0x1a]
  249 00000014 2002            MOVS             r0,#2
  250 00000016 F7FF FFFE       BL               SPI_FLASH_SendByte
  251 0000001A F3C8 4007       UBFX             r0,r8,#16,#8
  252 0000001E F7FF FFFE       BL               SPI_FLASH_SendByte
  253 00000022 F3C8 2007       UBFX             r0,r8,#8,#8
  254 00000026 F7FF FFFE       BL               SPI_FLASH_SendByte
  255 0000002A F008 00FF       AND              r0,r8,#0xff
  256 0000002E F7FF FFFE       BL               SPI_FLASH_SendByte
  257 00000032 0130            LSLS             r0,r6,#4
  258 00000034 4284            CMP              r4,r0
  259 00000036 D908            BLS              |L4.74|
  260 00000038 4604            MOV              r4,r0
  261 0000003A A009            ADR              r0,|L4.96|
  262 0000003C F7FF FFFE       BL               __2printf
  263 00000040 E003            B                |L4.74|
  264 00000042         |L4.66|
  265 00000042 7828            LDRB             r0,[r5,#0]
  266 00000044 F7FF FFFE       BL               SPI_FLASH_SendByte
  267 00000048 1C6D            ADDS             r5,r5,#1
  268 0000004A         |L4.74|
  269 0000004A 1E64            SUBS             r4,r4,#1
  270 0000004C B2A4            UXTH             r4,r4



ARM Macro Assembler    Page 6 


  271 0000004E D2F8            BCS              |L4.66|
  272 00000050 833E            STRH             r6,[r7,#0x18]
  273 00000052 E8BD 41F0       POP              {r4-r8,lr}
  274 00000056 F7FF BFFE       B.W              SPI_FLASH_WaitForWriteEnd
  275 0000005A                 ENDP
  276 0000005A         
  277 0000005A 00 00           DCW              0x0000
  278 0000005C         |L4.92|
  279 0000005C 40020000        DCD              0x40020000
  280 00000060         |L4.96|
  281 00000060 3C 3C 2D 
              46 4C 41 
              53 48 2D 
              45 52 52 
              4F 52 2D 
              3E 3E 20 
              53 50 49 
              5F 46 4C 
              41 53 48 
              5F 50 61 
              67 65 57 
              72 69 74 
              65 20 74 
              6F 6F 20 
              6C 61 72 
              67 65 21 
              0A 00            DCB              "<<-FLASH-ERROR->> SPI_FLASH_Pa
geWrite too large!\n",0
  282 00000092 00              DCB              0
  283 00000093 00              DCB              0
  284 00000094         
  285 00000094                 AREA             ||i.SPI_FLASH_ReadByte||, CODE,
 READONLY, ALIGN=1
  286 00000000         
  287 00000000         SPI_FLASH_ReadByte
                               PROC
  288 00000000 20FF            MOVS             r0,#0xff
  289 00000002 F7FF BFFE       B.W              SPI_FLASH_SendByte
  290 00000006                 ENDP
  291 00000006         
  292 00000006         
  293 00000006                 AREA             ||i.SPI_FLASH_ReadDeviceID||, C
ODE, READONLY, ALIGN=2
  294 00000000         
  295 00000000         SPI_FLASH_ReadDeviceID
                               PROC
  296 00000000 B570            PUSH             {r4-r6,lr}
  297 00000002 4D0A            LDR              r5,|L6.44|
  298 00000004 2410            MOVS             r4,#0x10
  299 00000006 836C            STRH             r4,[r5,#0x1a]
  300 00000008 20AB            MOVS             r0,#0xab
  301 0000000A F7FF FFFE       BL               SPI_FLASH_SendByte
  302 0000000E 20FF            MOVS             r0,#0xff
  303 00000010 F7FF FFFE       BL               SPI_FLASH_SendByte
  304 00000014 20FF            MOVS             r0,#0xff
  305 00000016 F7FF FFFE       BL               SPI_FLASH_SendByte
  306 0000001A 20FF            MOVS             r0,#0xff
  307 0000001C F7FF FFFE       BL               SPI_FLASH_SendByte
  308 00000020 20FF            MOVS             r0,#0xff



ARM Macro Assembler    Page 7 


  309 00000022 F7FF FFFE       BL               SPI_FLASH_SendByte
  310 00000026 832C            STRH             r4,[r5,#0x18]
  311 00000028 BD70            POP              {r4-r6,pc}
  312 0000002A                 ENDP
  313 0000002A         
  314 0000002A 00 00           DCW              0x0000
  315 0000002C         |L6.44|
  316 0000002C 40020000        DCD              0x40020000
  317 00000030         
  318 00000030                 AREA             ||i.SPI_FLASH_ReadID||, CODE, R
EADONLY, ALIGN=2
  319 00000000         
  320 00000000         SPI_FLASH_ReadID
                               PROC
  321 00000000 E92D 41F0       PUSH             {r4-r8,lr}
  322 00000004 4F0C            LDR              r7,|L7.56|
  323 00000006 2410            MOVS             r4,#0x10
  324 00000008 837C            STRH             r4,[r7,#0x1a]
  325 0000000A 209F            MOVS             r0,#0x9f
  326 0000000C F7FF FFFE       BL               SPI_FLASH_SendByte
  327 00000010 20FF            MOVS             r0,#0xff
  328 00000012 F7FF FFFE       BL               SPI_FLASH_SendByte
  329 00000016 4605            MOV              r5,r0
  330 00000018 20FF            MOVS             r0,#0xff
  331 0000001A F7FF FFFE       BL               SPI_FLASH_SendByte
  332 0000001E 4606            MOV              r6,r0
  333 00000020 20FF            MOVS             r0,#0xff
  334 00000022 F7FF FFFE       BL               SPI_FLASH_SendByte
  335 00000026 4601            MOV              r1,r0
  336 00000028 833C            STRH             r4,[r7,#0x18]
  337 0000002A 0428            LSLS             r0,r5,#16
  338 0000002C EA40 2006       ORR              r0,r0,r6,LSL #8
  339 00000030 4308            ORRS             r0,r0,r1
  340 00000032 E8BD 81F0       POP              {r4-r8,pc}
  341 00000036                 ENDP
  342 00000036         
  343 00000036 00 00           DCW              0x0000
  344 00000038         |L7.56|
  345 00000038 40020000        DCD              0x40020000
  346 0000003C         
  347 0000003C                 AREA             ||i.SPI_FLASH_SectorErase||, CO
DE, READONLY, ALIGN=2
  348 00000000         
  349 00000000         SPI_FLASH_SectorErase
                               PROC
  350 00000000 B570            PUSH             {r4-r6,lr}
  351 00000002 4604            MOV              r4,r0
  352 00000004 F7FF FFFE       BL               SPI_FLASH_WriteEnable
  353 00000008 F7FF FFFE       BL               SPI_FLASH_WaitForWriteEnd
  354 0000000C 4E0A            LDR              r6,|L8.56|
  355 0000000E 2510            MOVS             r5,#0x10
  356 00000010 8375            STRH             r5,[r6,#0x1a]
  357 00000012 2020            MOVS             r0,#0x20
  358 00000014 F7FF FFFE       BL               SPI_FLASH_SendByte
  359 00000018 F3C4 4007       UBFX             r0,r4,#16,#8
  360 0000001C F7FF FFFE       BL               SPI_FLASH_SendByte
  361 00000020 F3C4 2007       UBFX             r0,r4,#8,#8
  362 00000024 F7FF FFFE       BL               SPI_FLASH_SendByte
  363 00000028 B2E0            UXTB             r0,r4



ARM Macro Assembler    Page 8 


  364 0000002A F7FF FFFE       BL               SPI_FLASH_SendByte
  365 0000002E 8335            STRH             r5,[r6,#0x18]
  366 00000030 E8BD 4070       POP              {r4-r6,lr}
  367 00000034 F7FF BFFE       B.W              SPI_FLASH_WaitForWriteEnd
  368 00000038                 ENDP
  369 00000038         
  370 00000038         |L8.56|
  371 00000038 40020000        DCD              0x40020000
  372 0000003C         
  373 0000003C                 AREA             ||i.SPI_FLASH_SendByte||, CODE,
 READONLY, ALIGN=2
  374 00000000         
  375 00000000         SPI_FLASH_SendByte
                               PROC
  376 00000000 E92D 41F0       PUSH             {r4-r8,lr}
  377 00000004 4607            MOV              r7,r0
  378 00000006 4C18            LDR              r4,|L9.104|
  379 00000008 F44F 5580       MOV              r5,#0x1000
  380 0000000C 6065            STR              r5,[r4,#4]  ; SPITimeout
  381 0000000E 4E17            LDR              r6,|L9.108|
  382 00000010 E009            B                |L9.38|
  383 00000012         |L9.18|
  384 00000012 6860            LDR              r0,[r4,#4]  ; SPITimeout
  385 00000014 1E41            SUBS             r1,r0,#1
  386 00000016 6061            STR              r1,[r4,#4]  ; SPITimeout
  387 00000018 D205            BCS              |L9.38|
  388 0000001A 2000            MOVS             r0,#0
  389 0000001C F7FF FFFE       BL               SPI_TIMEOUT_UserCallback
  390 00000020 B2C0            UXTB             r0,r0
  391 00000022         |L9.34|
  392 00000022 E8BD 81F0       POP              {r4-r8,pc}
  393 00000026         |L9.38|
  394 00000026 2102            MOVS             r1,#2
  395 00000028 4630            MOV              r0,r6
  396 0000002A F7FF FFFE       BL               SPI_I2S_GetFlagStatus
  397 0000002E 2800            CMP              r0,#0
  398 00000030 D0EF            BEQ              |L9.18|
  399 00000032 4639            MOV              r1,r7
  400 00000034 4630            MOV              r0,r6
  401 00000036 F7FF FFFE       BL               SPI_I2S_SendData
  402 0000003A 6065            STR              r5,[r4,#4]  ; SPITimeout
  403 0000003C E008            B                |L9.80|
  404 0000003E         |L9.62|
  405 0000003E 6861            LDR              r1,[r4,#4]  ; SPITimeout
  406 00000040 1E4A            SUBS             r2,r1,#1
  407 00000042 6062            STR              r2,[r4,#4]  ; SPITimeout
  408 00000044 D204            BCS              |L9.80|
  409 00000046 2001            MOVS             r0,#1
  410 00000048 F7FF FFFE       BL               SPI_TIMEOUT_UserCallback
  411 0000004C B2C0            UXTB             r0,r0
  412 0000004E E7E8            B                |L9.34|
  413 00000050         |L9.80|
  414 00000050 2101            MOVS             r1,#1
  415 00000052 4630            MOV              r0,r6
  416 00000054 F7FF FFFE       BL               SPI_I2S_GetFlagStatus
  417 00000058 2800            CMP              r0,#0
  418 0000005A D0F0            BEQ              |L9.62|
  419 0000005C 4630            MOV              r0,r6
  420 0000005E F7FF FFFE       BL               SPI_I2S_ReceiveData



ARM Macro Assembler    Page 9 


  421 00000062 B2C0            UXTB             r0,r0
  422 00000064 E7DD            B                |L9.34|
  423 00000066                 ENDP
  424 00000066         
  425 00000066 00 00           DCW              0x0000
  426 00000068         |L9.104|
  427 00000068 00000000        DCD              ||.data||
  428 0000006C         |L9.108|
  429 0000006C 40003C00        DCD              0x40003c00
  430 00000070         
  431 00000070                 AREA             ||i.SPI_FLASH_SendHalfWord||, C
ODE, READONLY, ALIGN=2
  432 00000000         
  433 00000000         SPI_FLASH_SendHalfWord
                               PROC
  434 00000000 E92D 41F0       PUSH             {r4-r8,lr}
  435 00000004 4607            MOV              r7,r0
  436 00000006 4C17            LDR              r4,|L10.100|
  437 00000008 F44F 5580       MOV              r5,#0x1000
  438 0000000C 6065            STR              r5,[r4,#4]  ; SPITimeout
  439 0000000E 4E16            LDR              r6,|L10.104|
  440 00000010 E008            B                |L10.36|
  441 00000012         |L10.18|
  442 00000012 6860            LDR              r0,[r4,#4]  ; SPITimeout
  443 00000014 1E41            SUBS             r1,r0,#1
  444 00000016 6061            STR              r1,[r4,#4]  ; SPITimeout
  445 00000018 D204            BCS              |L10.36|
  446 0000001A E8BD 41F0       POP              {r4-r8,lr}
  447 0000001E 2002            MOVS             r0,#2
  448 00000020 F7FF BFFE       B.W              SPI_TIMEOUT_UserCallback
  449 00000024         |L10.36|
  450 00000024 2102            MOVS             r1,#2
  451 00000026 4630            MOV              r0,r6
  452 00000028 F7FF FFFE       BL               SPI_I2S_GetFlagStatus
  453 0000002C 2800            CMP              r0,#0
  454 0000002E D0F0            BEQ              |L10.18|
  455 00000030 4639            MOV              r1,r7
  456 00000032 4630            MOV              r0,r6
  457 00000034 F7FF FFFE       BL               SPI_I2S_SendData
  458 00000038 6065            STR              r5,[r4,#4]  ; SPITimeout
  459 0000003A E008            B                |L10.78|
  460 0000003C         |L10.60|
  461 0000003C 6861            LDR              r1,[r4,#4]  ; SPITimeout
  462 0000003E 1E4A            SUBS             r2,r1,#1
  463 00000040 6062            STR              r2,[r4,#4]  ; SPITimeout
  464 00000042 D204            BCS              |L10.78|
  465 00000044 E8BD 41F0       POP              {r4-r8,lr}
  466 00000048 2003            MOVS             r0,#3
  467 0000004A F7FF BFFE       B.W              SPI_TIMEOUT_UserCallback
  468 0000004E         |L10.78|
  469 0000004E 2101            MOVS             r1,#1
  470 00000050 4630            MOV              r0,r6
  471 00000052 F7FF FFFE       BL               SPI_I2S_GetFlagStatus
  472 00000056 2800            CMP              r0,#0
  473 00000058 D0F0            BEQ              |L10.60|
  474 0000005A 4630            MOV              r0,r6
  475 0000005C E8BD 41F0       POP              {r4-r8,lr}
  476 00000060 F7FF BFFE       B.W              SPI_I2S_ReceiveData
  477 00000064                 ENDP



ARM Macro Assembler    Page 10 


  478 00000064         
  479 00000064         |L10.100|
  480 00000064 00000000        DCD              ||.data||
  481 00000068         |L10.104|
  482 00000068 40003C00        DCD              0x40003c00
  483 0000006C         
  484 0000006C                 AREA             ||i.SPI_FLASH_StartReadSequence
||, CODE, READONLY, ALIGN=2
  485 00000000         
  486 00000000         SPI_FLASH_StartReadSequence
                               PROC
  487 00000000 B510            PUSH             {r4,lr}
  488 00000002 4604            MOV              r4,r0
  489 00000004 4909            LDR              r1,|L11.44|
  490 00000006 2010            MOVS             r0,#0x10
  491 00000008 8348            STRH             r0,[r1,#0x1a]
  492 0000000A 2003            MOVS             r0,#3
  493 0000000C F7FF FFFE       BL               SPI_FLASH_SendByte
  494 00000010 F3C4 4007       UBFX             r0,r4,#16,#8
  495 00000014 F7FF FFFE       BL               SPI_FLASH_SendByte
  496 00000018 F3C4 2007       UBFX             r0,r4,#8,#8
  497 0000001C F7FF FFFE       BL               SPI_FLASH_SendByte
  498 00000020 B2E0            UXTB             r0,r4
  499 00000022 E8BD 4010       POP              {r4,lr}
  500 00000026 F7FF BFFE       B.W              SPI_FLASH_SendByte
  501 0000002A                 ENDP
  502 0000002A         
  503 0000002A 00 00           DCW              0x0000
  504 0000002C         |L11.44|
  505 0000002C 40020000        DCD              0x40020000
  506 00000030         
  507 00000030                 AREA             ||i.SPI_FLASH_WaitForWriteEnd||
, CODE, READONLY, ALIGN=2
  508 00000000         
  509 00000000         SPI_FLASH_WaitForWriteEnd
                               PROC
  510 00000000 B570            PUSH             {r4-r6,lr}
  511 00000002 4E0C            LDR              r6,|L12.52|
  512 00000004 2510            MOVS             r5,#0x10
  513 00000006 8375            STRH             r5,[r6,#0x1a]
  514 00000008 2005            MOVS             r0,#5
  515 0000000A F7FF FFFE       BL               SPI_FLASH_SendByte
  516 0000000E 4C0A            LDR              r4,|L12.56|
  517 00000010 0228            LSLS             r0,r5,#8
  518 00000012 6060            STR              r0,[r4,#4]  ; SPITimeout
  519 00000014         |L12.20|
  520 00000014 20FF            MOVS             r0,#0xff
  521 00000016 F7FF FFFE       BL               SPI_FLASH_SendByte
  522 0000001A 6861            LDR              r1,[r4,#4]  ; SPITimeout
  523 0000001C 1E4A            SUBS             r2,r1,#1
  524 0000001E 6062            STR              r2,[r4,#4]  ; SPITimeout
  525 00000020 D204            BCS              |L12.44|
  526 00000022 E8BD 4070       POP              {r4-r6,lr}
  527 00000026 2004            MOVS             r0,#4
  528 00000028 F7FF BFFE       B.W              SPI_TIMEOUT_UserCallback
  529 0000002C         |L12.44|
  530 0000002C 07C0            LSLS             r0,r0,#31
  531 0000002E D1F1            BNE              |L12.20|
  532 00000030 8335            STRH             r5,[r6,#0x18]



ARM Macro Assembler    Page 11 


  533 00000032 BD70            POP              {r4-r6,pc}
  534 00000034                 ENDP
  535 00000034         
  536 00000034         |L12.52|
  537 00000034 40020000        DCD              0x40020000
  538 00000038         |L12.56|
  539 00000038 00000000        DCD              ||.data||
  540 0000003C         
  541 0000003C                 AREA             ||i.SPI_FLASH_WriteEnable||, CO
DE, READONLY, ALIGN=2
  542 00000000         
  543 00000000         SPI_FLASH_WriteEnable
                               PROC
  544 00000000 B570            PUSH             {r4-r6,lr}
  545 00000002 4C04            LDR              r4,|L13.20|
  546 00000004 2510            MOVS             r5,#0x10
  547 00000006 8365            STRH             r5,[r4,#0x1a]
  548 00000008 2006            MOVS             r0,#6
  549 0000000A F7FF FFFE       BL               SPI_FLASH_SendByte
  550 0000000E 8325            STRH             r5,[r4,#0x18]
  551 00000010 BD70            POP              {r4-r6,pc}
  552 00000012                 ENDP
  553 00000012         
  554 00000012 00 00           DCW              0x0000
  555 00000014         |L13.20|
  556 00000014 40020000        DCD              0x40020000
  557 00000018         
  558 00000018                 AREA             ||i.SPI_Flash_PowerDown||, CODE
, READONLY, ALIGN=2
  559 00000000         
  560 00000000         SPI_Flash_PowerDown
                               PROC
  561 00000000 B570            PUSH             {r4-r6,lr}
  562 00000002 4C04            LDR              r4,|L14.20|
  563 00000004 2510            MOVS             r5,#0x10
  564 00000006 8365            STRH             r5,[r4,#0x1a]
  565 00000008 20B9            MOVS             r0,#0xb9
  566 0000000A F7FF FFFE       BL               SPI_FLASH_SendByte
  567 0000000E 8325            STRH             r5,[r4,#0x18]
  568 00000010 BD70            POP              {r4-r6,pc}
  569 00000012                 ENDP
  570 00000012         
  571 00000012 00 00           DCW              0x0000
  572 00000014         |L14.20|
  573 00000014 40020000        DCD              0x40020000
  574 00000018         
  575 00000018                 AREA             ||i.SPI_Flash_WAKEUP||, CODE, R
EADONLY, ALIGN=2
  576 00000000         
  577 00000000         SPI_Flash_WAKEUP
                               PROC
  578 00000000 B570            PUSH             {r4-r6,lr}
  579 00000002 4C04            LDR              r4,|L15.20|
  580 00000004 2510            MOVS             r5,#0x10
  581 00000006 8365            STRH             r5,[r4,#0x1a]
  582 00000008 20AB            MOVS             r0,#0xab
  583 0000000A F7FF FFFE       BL               SPI_FLASH_SendByte
  584 0000000E 8325            STRH             r5,[r4,#0x18]
  585 00000010 BD70            POP              {r4-r6,pc}



ARM Macro Assembler    Page 12 


  586 00000012                 ENDP
  587 00000012         
  588 00000012 00 00           DCW              0x0000
  589 00000014         |L15.20|
  590 00000014 40020000        DCD              0x40020000
  591 00000018         
  592 00000018                 AREA             ||i.SPI_TIMEOUT_UserCallback||,
 CODE, READONLY, ALIGN=2
  593 00000000         
  594 00000000                 REQUIRE          _printf_percent
  595 00000000                 REQUIRE          _printf_d
  596 00000000                 REQUIRE          _printf_int_dec
  597 00000000         SPI_TIMEOUT_UserCallback
                               PROC
  598 00000000 B510            PUSH             {r4,lr}
  599 00000002 4601            MOV              r1,r0
  600 00000004 A002            ADR              r0,|L16.16|
  601 00000006 F7FF FFFE       BL               __2printf
  602 0000000A 2000            MOVS             r0,#0
  603 0000000C BD10            POP              {r4,pc}
  604 0000000E                 ENDP
  605 0000000E         
  606 0000000E 00 00           DCW              0x0000
  607 00000010         |L16.16|
  608 00000010 3C 3C 2D 
              46 4C 41 
              53 48 2D 
              45 52 52 
              4F 52 2D 
              3E 3E 20 
              53 50 49 
              20 B5 C8 
              B4 FD B3 
              AC CA B1         DCB              "<<-FLASH-ERROR->> SPI ",181,20
0,180,253,179,172,202,177
  609 0000002E 21 65 72 
              72 6F 72 
              43 6F 64 
              65 20 3D 
              20 25 64 
              0A 00            DCB              "!errorCode = %d\n",0
  610 0000003F 00              DCB              0
  611 00000040         
  612 00000040                 AREA             ||i.init_cfg||, CODE, READONLY,
 ALIGN=2
  613 00000000         
  614 00000000         init_cfg
                               PROC
  615 00000000 B510            PUSH             {r4,lr}
  616 00000002 2100            MOVS             r1,#0
  617 00000004 2200            MOVS             r2,#0
  618 00000006 4B08            LDR              r3,|L17.40|
  619 00000008 24FE            MOVS             r4,#0xfe
  620 0000000A         |L17.10|
  621 0000000A EB01 0041       ADD              r0,r1,r1,LSL #1
  622 0000000E F803 4010       STRB             r4,[r3,r0,LSL #1]
  623 00000012 EB03 0040       ADD              r0,r3,r0,LSL #1
  624 00000016 7042            STRB             r2,[r0,#1]
  625 00000018 7082            STRB             r2,[r0,#2]



ARM Macro Assembler    Page 13 


  626 0000001A 70C2            STRB             r2,[r0,#3]
  627 0000001C 7102            STRB             r2,[r0,#4]
  628 0000001E 7142            STRB             r2,[r0,#5]
  629 00000020 1C49            ADDS             r1,r1,#1
  630 00000022 2901            CMP              r1,#1
  631 00000024 DBF1            BLT              |L17.10|
  632 00000026 BD10            POP              {r4,pc}
  633 00000028                 ENDP
  634 00000028         
  635 00000028         |L17.40|
  636 00000028 00000008        DCD              ||.data||+0x8
  637 0000002C         
  638 0000002C                 AREA             ||i.set_adc||, CODE, READONLY, 
ALIGN=2
  639 00000000         
  640 00000000         set_adc PROC
  641 00000000 B570            PUSH             {r4-r6,lr}
  642 00000002 F3C0 0440       UBFX             r4,r0,#1,#1
  643 00000006 4D08            LDR              r5,|L18.40|
  644 00000008 1CA6            ADDS             r6,r4,#2
  645 0000000A 702E            STRB             r6,[r5,#0]
  646 0000000C 01C0            LSLS             r0,r0,#7
  647 0000000E EB00 1101       ADD              r1,r0,r1,LSL #4
  648 00000012 4411            ADD              r1,r1,r2
  649 00000014 3160            ADDS             r1,r1,#0x60
  650 00000016 7069            STRB             r1,[r5,#1]
  651 00000018 1D24            ADDS             r4,r4,#4
  652 0000001A 1CA9            ADDS             r1,r5,#2
  653 0000001C 700C            STRB             r4,[r1,#0]
  654 0000001E 4418            ADD              r0,r0,r3
  655 00000020 3060            ADDS             r0,r0,#0x60
  656 00000022 7048            STRB             r0,[r1,#1]
  657 00000024 BD70            POP              {r4-r6,pc}
  658 00000026                 ENDP
  659 00000026         
  660 00000026 00 00           DCW              0x0000
  661 00000028         |L18.40|
  662 00000028 00000000        DCD              ||.data||
  663 0000002C         
  664 0000002C                 AREA             ||i.wakeup_sleep||, CODE, READO
NLY, ALIGN=2
  665 00000000         
  666 00000000         wakeup_sleep
                               PROC
  667 00000000 B570            PUSH             {r4-r6,lr}
  668 00000002 4C04            LDR              r4,|L19.20|
  669 00000004 2510            MOVS             r5,#0x10
  670 00000006 8365            STRH             r5,[r4,#0x1a]
  671 00000008 2001            MOVS             r0,#1
  672 0000000A F7FF FFFE       BL               Delay_10_us
  673 0000000E 8325            STRH             r5,[r4,#0x18]
  674 00000010 BD70            POP              {r4-r6,pc}
  675 00000012                 ENDP
  676 00000012         
  677 00000012 00 00           DCW              0x0000
  678 00000014         |L19.20|
  679 00000014 40020000        DCD              0x40020000
  680 00000018         
  681 00000018                 AREA             ||.arm_vfe_header||, DATA, READ



ARM Macro Assembler    Page 14 


ONLY, NOALLOC, ALIGN=2
  682 00000000         
  683 00000000 00000000        DCD              0x00000000
  684 00000004         
  685 00000004                 AREA             ||.bss||, DATA, NOINIT, ALIGN=1
  686 00000000         
  687 00000000         cell_codes
  688 00000000                 %                24
  689 00000018         
  690 00000018                 AREA             ||area_number.22||, DATA, NOINI
T, ALIGN=1
  691 00000000         
  692 00000000                 EXPORTAS         ||area_number.22||, ||.bss||
  693 00000000         aux_codes
  694 00000000                 %                12
  695 0000000C         
  696 0000000C                 AREA             ||.constdata||, DATA, READONLY,
 ALIGN=0
  697 00000000         
  698 00000000         TOTAL_IC
  699 00000000 01              DCB              0x01
  700 00000001         
  701 00000001                 AREA             ||.data||, DATA, ALIGN=2
  702 00000000         
  703 00000000         ADCV
  704 00000000 00 00           DCB              0x00,0x00
  705 00000002         ADAX
  706 00000002 00 00           DCB              0x00,0x00
  707 00000004         SPITimeout
  708 00000004 0000A000        DCD              0x0000a000
  709 00000008         tx_cfg
  710 00000008 00000000        DCD              0x00000000
  711 0000000C 00 00           DCB              0x00,0x00
  712 0000000E         
  713 0000000E                 AREA             ||area_number.26||, DATA, ALIGN
=0
  714 00000000         
  715 00000000                 EXPORTAS         ||area_number.26||, ||.data||
  716 00000000         rx_cfg
  717 00000000 00 00 00 
              00 00 00 
              00 00            %                8
  718 00000008         
  719 00000008         ;*** Start embedded assembler ***
  720 00000008         
  721 00000008         #line   1                "..\\..\\User\\bsp\\spi\\bsp_sp
i_flash.c"
    1 00000008                 AREA             ||.rev16_text||, CODE
    2 00000000                 THUMB
    3 00000000                 EXPORT           |__asm___15_bsp_spi_flash_c_TOT
AL_IC____REV16|
    4 00000000         #line   129              "..\\..\\Libraries\\CMSIS\\Incl
ude\\core_cmInstr.h"
  129 00000000         |__asm___15_bsp_spi_flash_c_TOTAL_IC____REV16|
                               PROC
  130 00000000         #line   130
  130 00000000         
  131 00000000 BA40            rev16            r0, r0
  132 00000002 4770            bx               lr



ARM Macro Assembler    Page 15 


  133 00000004                 ENDP
  134 00000004                 AREA             ||.revsh_text||, CODE
  135 00000000                 THUMB
  136 00000000                 EXPORT           |__asm___15_bsp_spi_flash_c_TOT
AL_IC____REVSH|
  137 00000000         #line   144
  144 00000000         |__asm___15_bsp_spi_flash_c_TOTAL_IC____REVSH|
                               PROC
  145 00000000         #line   145
  145 00000000         
  146 00000000 BAC0            revsh            r0, r0
  147 00000002 4770            bx               lr
  148 00000004                 ENDP
  149 00000004                 AREA             ||.rrx_text||, CODE
  150 00000000                 THUMB
  151 00000000                 EXPORT           |__asm___15_bsp_spi_flash_c_TOT
AL_IC____RRX|
  152 00000000         #line   300
  300 00000000         |__asm___15_bsp_spi_flash_c_TOTAL_IC____RRX|
                               PROC
  301 00000000         #line   301
  301 00000000         
  302 00000000 EA4F 0030       rrx              r0, r0
  303 00000004 4770            bx               lr
  304 00000006                 ENDP
  305 00000006         
  306 00000006         ;*** End   embedded assembler ***
  307 00000006         
  308 00000006                 EXPORT           SPI_FLASH_BufferRead [CODE]
  309 00000006                 EXPORT           SPI_FLASH_BufferWrite [CODE]
  310 00000006                 EXPORT           SPI_FLASH_BulkErase [CODE]
  311 00000006                 EXPORT           SPI_FLASH_Init [CODE]
  312 00000006                 EXPORT           SPI_FLASH_PageWrite [CODE]
  313 00000006                 EXPORT           SPI_FLASH_ReadByte [CODE]
  314 00000006                 EXPORT           SPI_FLASH_ReadDeviceID [CODE]
  315 00000006                 EXPORT           SPI_FLASH_ReadID [CODE]
  316 00000006                 EXPORT           SPI_FLASH_SectorErase [CODE]
  317 00000006                 EXPORT           SPI_FLASH_SendByte [CODE]
  318 00000006                 EXPORT           SPI_FLASH_SendHalfWord [CODE]
  319 00000006                 EXPORT           SPI_FLASH_StartReadSequence [CO
DE]
  320 00000006                 EXPORT           SPI_FLASH_WaitForWriteEnd [CODE
]
  321 00000006                 EXPORT           SPI_FLASH_WriteEnable [CODE]
  322 00000006                 EXPORT           SPI_Flash_PowerDown [CODE]
  323 00000006                 EXPORT           SPI_Flash_WAKEUP [CODE]
  324 00000006                 EXPORT           init_cfg [CODE]
  325 00000006                 EXPORT           set_adc [CODE]
  326 00000006                 EXPORT           wakeup_sleep [CODE]
  327 00000006                 EXPORT           cell_codes [DATA,SIZE=24]
  328 00000006                 EXPORT           aux_codes [DATA,SIZE=12]
  329 00000006                 EXPORT           TOTAL_IC [DATA,SIZE=1]
  330 00000006                 EXPORT           ADCV [DATA,SIZE=2]
  331 00000006                 EXPORT           ADAX [DATA,SIZE=2]
  332 00000006                 EXPORT           tx_cfg [DATA,SIZE=6]
  333 00000006                 EXPORT           rx_cfg [DATA,SIZE=8]
  334 00000006         
  335 00000006                 IMPORT           ||Lib$$Request$$armlib|| [CODE,
WEAK]



ARM Macro Assembler    Page 16 


  336 00000006                 IMPORT           RCC_AHB1PeriphClockCmd [CODE]
  337 00000006                 IMPORT           RCC_APB2PeriphClockCmd [CODE]
  338 00000006                 IMPORT           GPIO_PinAFConfig [CODE]
  339 00000006                 IMPORT           GPIO_Init [CODE]
  340 00000006                 IMPORT           SPI_Init [CODE]
  341 00000006                 IMPORT           SPI_Cmd [CODE]
  342 00000006                 IMPORT           _printf_percent [CODE]
  343 00000006                 IMPORT           _printf_d [CODE]
  344 00000006                 IMPORT           _printf_int_dec [CODE]
  345 00000006                 IMPORT           __2printf [CODE]
  346 00000006                 IMPORT           SPI_I2S_GetFlagStatus [CODE]
  347 00000006                 IMPORT           SPI_I2S_SendData [CODE]
  348 00000006                 IMPORT           SPI_I2S_ReceiveData [CODE]
  349 00000006                 IMPORT           Delay_10_us [CODE]
  350 00000006         
  351 00000006                 KEEP             SPI_TIMEOUT_UserCallback
  352 00000006                 KEEP             SPITimeout
  353 00000006         
  354 00000006                 ATTR             FILESCOPE
  355 00000006                 ATTR             SETVALUE Tag_ABI_PCS_wchar_t,2
  356 00000006                 ATTR             SETVALUE Tag_ABI_enum_size,1
  357 00000006                 ATTR             SETVALUE Tag_ABI_optimization_g
oals,5
  358 00000006                 ATTR             SETSTRING Tag_conformance,"2.09
"
  359 00000006                 ATTR             SETVALUE AV,18,1
  360 00000006         
  361 00000006                 ASSERT           {ENDIAN} = "little"
  362 00000006                 ASSERT           {INTER} = {TRUE}
  363 00000006                 ASSERT           {ROPI} = {FALSE}
  364 00000006                 ASSERT           {RWPI} = {FALSE}
  365 00000006                 ASSERT           {IEEE_FULL} = {FALSE}
  366 00000006                 ASSERT           {IEEE_PART} = {FALSE}
  367 00000006                 ASSERT           {IEEE_JAVA} = {FALSE}
  368 00000006                 END
Command Line: --debug --xref --diag_suppress=9931 --cpu=Cortex-M4.fp --apcs=int
erwork -o..\..\output\bsp_spi_flash.o -IE:\Synchronization\CodeProject\GitHub\D
efond\Battery_Detection\Software\EmbedSoftware\STM32F429_NewProject_template\Pr
oject\RVMDK£¨uv5£©\RTE\_New_Project_Template -ID:\Keil_v5_for_ARM\ARM\PACK\Keil
\STM32F4xx_DFP\2.10.0\Drivers\CMSIS\Device\ST\STM32F4xx\Include -ID:\Keil_v5_fo
r_ARM\ARM\CMSIS\Include --predefine="__MICROLIB SETA 1" --predefine="__UVISION_
VERSION SETA 522" --predefine="STM32F429xx SETA 1" --list=..\..\listing\bsp_spi
_flash.lst ..\..\output\bsp_spi_flash.s



ARM Macro Assembler    Page 1 Alphabetic symbol ordering
Relocatable symbols

L0.48 00000030

Symbol: L0.48
   Definitions
      At line 26 in file ..\..\output\bsp_spi_flash.s
   Uses
      At line 33 in file ..\..\output\bsp_spi_flash.s
Comment: L0.48 used once
L0.58 0000003A

Symbol: L0.58
   Definitions
      At line 30 in file ..\..\output\bsp_spi_flash.s
   Uses
      At line 25 in file ..\..\output\bsp_spi_flash.s
Comment: L0.58 used once
L0.72 00000048

Symbol: L0.72
   Definitions
      At line 39 in file ..\..\output\bsp_spi_flash.s
   Uses
      At line 14 in file ..\..\output\bsp_spi_flash.s
Comment: L0.72 used once
SPI_FLASH_BufferRead 00000000

Symbol: SPI_FLASH_BufferRead
   Definitions
      At line 9 in file ..\..\output\bsp_spi_flash.s
   Uses
      At line 308 in file ..\\..\\Libraries\\CMSIS\\Include\\core_cmInstr.h
Comment: SPI_FLASH_BufferRead used once
|i.SPI_FLASH_BufferRead| 00000000

Symbol: |i.SPI_FLASH_BufferRead|
   Definitions
      At line 7 in file ..\..\output\bsp_spi_flash.s
   Uses
      None
Comment: |i.SPI_FLASH_BufferRead| unused
5 symbols



ARM Macro Assembler    Page 1 Alphabetic symbol ordering
Relocatable symbols

L1.118 00000076

Symbol: L1.118
   Definitions
      At line 94 in file ..\..\output\bsp_spi_flash.s
   Uses
      At line 60 in file ..\..\output\bsp_spi_flash.s
Comment: L1.118 used once
L1.152 00000098

Symbol: L1.152
   Definitions
      At line 108 in file ..\..\output\bsp_spi_flash.s
   Uses
      At line 96 in file ..\..\output\bsp_spi_flash.s
Comment: L1.152 used once
L1.164 000000A4

Symbol: L1.164
   Definitions
      At line 113 in file ..\..\output\bsp_spi_flash.s
   Uses
      At line 123 in file ..\..\output\bsp_spi_flash.s
Comment: L1.164 used once
L1.182 000000B6

Symbol: L1.182
   Definitions
      At line 120 in file ..\..\output\bsp_spi_flash.s
   Uses
      At line 71 in file ..\..\output\bsp_spi_flash.s
Comment: L1.182 used once
L1.208 000000D0

Symbol: L1.208
   Definitions
      At line 131 in file ..\..\output\bsp_spi_flash.s
   Uses
      At line 125 in file ..\..\output\bsp_spi_flash.s
Comment: L1.208 used once
L1.66 00000042

Symbol: L1.66
   Definitions
      At line 72 in file ..\..\output\bsp_spi_flash.s
   Uses
      At line 55 in file ..\..\output\bsp_spi_flash.s
Comment: L1.66 used once
L1.80 00000050

Symbol: L1.80
   Definitions
      At line 78 in file ..\..\output\bsp_spi_flash.s
   Uses
      At line 88 in file ..\..\output\bsp_spi_flash.s
Comment: L1.80 used once
L1.98 00000062

Symbol: L1.98



ARM Macro Assembler    Page 2 Alphabetic symbol ordering
Relocatable symbols

   Definitions
      At line 85 in file ..\..\output\bsp_spi_flash.s
   Uses
      At line 73 in file ..\..\output\bsp_spi_flash.s
Comment: L1.98 used once
SPI_FLASH_BufferWrite 00000000

Symbol: SPI_FLASH_BufferWrite
   Definitions
      At line 44 in file ..\..\output\bsp_spi_flash.s
   Uses
      At line 309 in file ..\\..\\Libraries\\CMSIS\\Include\\core_cmInstr.h
Comment: SPI_FLASH_BufferWrite used once
|i.SPI_FLASH_BufferWrite| 00000000

Symbol: |i.SPI_FLASH_BufferWrite|
   Definitions
      At line 42 in file ..\..\output\bsp_spi_flash.s
   Uses
      None
Comment: |i.SPI_FLASH_BufferWrite| unused
10 symbols



ARM Macro Assembler    Page 1 Alphabetic symbol ordering
Relocatable symbols

L2.28 0000001C

Symbol: L2.28
   Definitions
      At line 151 in file ..\..\output\bsp_spi_flash.s
   Uses
      At line 141 in file ..\..\output\bsp_spi_flash.s
Comment: L2.28 used once
SPI_FLASH_BulkErase 00000000

Symbol: SPI_FLASH_BulkErase
   Definitions
      At line 138 in file ..\..\output\bsp_spi_flash.s
   Uses
      At line 310 in file ..\\..\\Libraries\\CMSIS\\Include\\core_cmInstr.h
Comment: SPI_FLASH_BulkErase used once
|i.SPI_FLASH_BulkErase| 00000000

Symbol: |i.SPI_FLASH_BulkErase|
   Definitions
      At line 136 in file ..\..\output\bsp_spi_flash.s
   Uses
      None
Comment: |i.SPI_FLASH_BulkErase| unused
3 symbols



ARM Macro Assembler    Page 1 Alphabetic symbol ordering
Relocatable symbols

L3.204 000000CC

Symbol: L3.204
   Definitions
      At line 231 in file ..\..\output\bsp_spi_flash.s
   Uses
      At line 165 in file ..\..\output\bsp_spi_flash.s
Comment: L3.204 used once
L3.208 000000D0

Symbol: L3.208
   Definitions
      At line 233 in file ..\..\output\bsp_spi_flash.s
   Uses
      At line 202 in file ..\..\output\bsp_spi_flash.s
Comment: L3.208 used once
L3.212 000000D4

Symbol: L3.212
   Definitions
      At line 235 in file ..\..\output\bsp_spi_flash.s
   Uses
      At line 220 in file ..\..\output\bsp_spi_flash.s
Comment: L3.212 used once
SPI_FLASH_Init 00000000

Symbol: SPI_FLASH_Init
   Definitions
      At line 156 in file ..\..\output\bsp_spi_flash.s
   Uses
      At line 311 in file ..\\..\\Libraries\\CMSIS\\Include\\core_cmInstr.h
Comment: SPI_FLASH_Init used once
|i.SPI_FLASH_Init| 00000000

Symbol: |i.SPI_FLASH_Init|
   Definitions
      At line 154 in file ..\..\output\bsp_spi_flash.s
   Uses
      None
Comment: |i.SPI_FLASH_Init| unused
5 symbols



ARM Macro Assembler    Page 1 Alphabetic symbol ordering
Relocatable symbols

L4.66 00000042

Symbol: L4.66
   Definitions
      At line 264 in file ..\..\output\bsp_spi_flash.s
   Uses
      At line 271 in file ..\..\output\bsp_spi_flash.s
Comment: L4.66 used once
L4.74 0000004A

Symbol: L4.74
   Definitions
      At line 268 in file ..\..\output\bsp_spi_flash.s
   Uses
      At line 259 in file ..\..\output\bsp_spi_flash.s
      At line 263 in file ..\..\output\bsp_spi_flash.s

L4.92 0000005C

Symbol: L4.92
   Definitions
      At line 278 in file ..\..\output\bsp_spi_flash.s
   Uses
      At line 246 in file ..\..\output\bsp_spi_flash.s
Comment: L4.92 used once
L4.96 00000060

Symbol: L4.96
   Definitions
      At line 280 in file ..\..\output\bsp_spi_flash.s
   Uses
      At line 261 in file ..\..\output\bsp_spi_flash.s
Comment: L4.96 used once
SPI_FLASH_PageWrite 00000000

Symbol: SPI_FLASH_PageWrite
   Definitions
      At line 240 in file ..\..\output\bsp_spi_flash.s
   Uses
      At line 68 in file ..\..\output\bsp_spi_flash.s
      At line 77 in file ..\..\output\bsp_spi_flash.s
      At line 82 in file ..\..\output\bsp_spi_flash.s
      At line 93 in file ..\..\output\bsp_spi_flash.s
      At line 102 in file ..\..\output\bsp_spi_flash.s
      At line 107 in file ..\..\output\bsp_spi_flash.s
      At line 112 in file ..\..\output\bsp_spi_flash.s
      At line 117 in file ..\..\output\bsp_spi_flash.s
      At line 130 in file ..\..\output\bsp_spi_flash.s
      At line 312 in file ..\\..\\Libraries\\CMSIS\\Include\\core_cmInstr.h

|i.SPI_FLASH_PageWrite| 00000000

Symbol: |i.SPI_FLASH_PageWrite|
   Definitions
      At line 238 in file ..\..\output\bsp_spi_flash.s
   Uses
      None
Comment: |i.SPI_FLASH_PageWrite| unused
6 symbols



ARM Macro Assembler    Page 1 Alphabetic symbol ordering
Relocatable symbols

SPI_FLASH_ReadByte 00000000

Symbol: SPI_FLASH_ReadByte
   Definitions
      At line 287 in file ..\..\output\bsp_spi_flash.s
   Uses
      At line 313 in file ..\\..\\Libraries\\CMSIS\\Include\\core_cmInstr.h
Comment: SPI_FLASH_ReadByte used once
|i.SPI_FLASH_ReadByte| 00000000

Symbol: |i.SPI_FLASH_ReadByte|
   Definitions
      At line 285 in file ..\..\output\bsp_spi_flash.s
   Uses
      None
Comment: |i.SPI_FLASH_ReadByte| unused
2 symbols



ARM Macro Assembler    Page 1 Alphabetic symbol ordering
Relocatable symbols

L6.44 0000002C

Symbol: L6.44
   Definitions
      At line 315 in file ..\..\output\bsp_spi_flash.s
   Uses
      At line 297 in file ..\..\output\bsp_spi_flash.s
Comment: L6.44 used once
SPI_FLASH_ReadDeviceID 00000000

Symbol: SPI_FLASH_ReadDeviceID
   Definitions
      At line 295 in file ..\..\output\bsp_spi_flash.s
   Uses
      At line 314 in file ..\\..\\Libraries\\CMSIS\\Include\\core_cmInstr.h
Comment: SPI_FLASH_ReadDeviceID used once
|i.SPI_FLASH_ReadDeviceID| 00000000

Symbol: |i.SPI_FLASH_ReadDeviceID|
   Definitions
      At line 293 in file ..\..\output\bsp_spi_flash.s
   Uses
      None
Comment: |i.SPI_FLASH_ReadDeviceID| unused
3 symbols



ARM Macro Assembler    Page 1 Alphabetic symbol ordering
Relocatable symbols

L7.56 00000038

Symbol: L7.56
   Definitions
      At line 344 in file ..\..\output\bsp_spi_flash.s
   Uses
      At line 322 in file ..\..\output\bsp_spi_flash.s
Comment: L7.56 used once
SPI_FLASH_ReadID 00000000

Symbol: SPI_FLASH_ReadID
   Definitions
      At line 320 in file ..\..\output\bsp_spi_flash.s
   Uses
      At line 315 in file ..\\..\\Libraries\\CMSIS\\Include\\core_cmInstr.h
Comment: SPI_FLASH_ReadID used once
|i.SPI_FLASH_ReadID| 00000000

Symbol: |i.SPI_FLASH_ReadID|
   Definitions
      At line 318 in file ..\..\output\bsp_spi_flash.s
   Uses
      None
Comment: |i.SPI_FLASH_ReadID| unused
3 symbols



ARM Macro Assembler    Page 1 Alphabetic symbol ordering
Relocatable symbols

L8.56 00000038

Symbol: L8.56
   Definitions
      At line 370 in file ..\..\output\bsp_spi_flash.s
   Uses
      At line 354 in file ..\..\output\bsp_spi_flash.s
Comment: L8.56 used once
SPI_FLASH_SectorErase 00000000

Symbol: SPI_FLASH_SectorErase
   Definitions
      At line 349 in file ..\..\output\bsp_spi_flash.s
   Uses
      At line 316 in file ..\\..\\Libraries\\CMSIS\\Include\\core_cmInstr.h
Comment: SPI_FLASH_SectorErase used once
|i.SPI_FLASH_SectorErase| 00000000

Symbol: |i.SPI_FLASH_SectorErase|
   Definitions
      At line 347 in file ..\..\output\bsp_spi_flash.s
   Uses
      None
Comment: |i.SPI_FLASH_SectorErase| unused
3 symbols



ARM Macro Assembler    Page 1 Alphabetic symbol ordering
Relocatable symbols

L9.104 00000068

Symbol: L9.104
   Definitions
      At line 426 in file ..\..\output\bsp_spi_flash.s
   Uses
      At line 378 in file ..\..\output\bsp_spi_flash.s
Comment: L9.104 used once
L9.108 0000006C

Symbol: L9.108
   Definitions
      At line 428 in file ..\..\output\bsp_spi_flash.s
   Uses
      At line 381 in file ..\..\output\bsp_spi_flash.s
Comment: L9.108 used once
L9.18 00000012

Symbol: L9.18
   Definitions
      At line 383 in file ..\..\output\bsp_spi_flash.s
   Uses
      At line 398 in file ..\..\output\bsp_spi_flash.s
Comment: L9.18 used once
L9.34 00000022

Symbol: L9.34
   Definitions
      At line 391 in file ..\..\output\bsp_spi_flash.s
   Uses
      At line 412 in file ..\..\output\bsp_spi_flash.s
      At line 422 in file ..\..\output\bsp_spi_flash.s

L9.38 00000026

Symbol: L9.38
   Definitions
      At line 393 in file ..\..\output\bsp_spi_flash.s
   Uses
      At line 382 in file ..\..\output\bsp_spi_flash.s
      At line 387 in file ..\..\output\bsp_spi_flash.s

L9.62 0000003E

Symbol: L9.62
   Definitions
      At line 404 in file ..\..\output\bsp_spi_flash.s
   Uses
      At line 418 in file ..\..\output\bsp_spi_flash.s
Comment: L9.62 used once
L9.80 00000050

Symbol: L9.80
   Definitions
      At line 413 in file ..\..\output\bsp_spi_flash.s
   Uses
      At line 403 in file ..\..\output\bsp_spi_flash.s
      At line 408 in file ..\..\output\bsp_spi_flash.s




ARM Macro Assembler    Page 2 Alphabetic symbol ordering
Relocatable symbols

SPI_FLASH_SendByte 00000000

Symbol: SPI_FLASH_SendByte
   Definitions
      At line 375 in file ..\..\output\bsp_spi_flash.s
   Uses
      At line 18 in file ..\..\output\bsp_spi_flash.s
      At line 20 in file ..\..\output\bsp_spi_flash.s
      At line 22 in file ..\..\output\bsp_spi_flash.s
      At line 24 in file ..\..\output\bsp_spi_flash.s
      At line 28 in file ..\..\output\bsp_spi_flash.s
      At line 145 in file ..\..\output\bsp_spi_flash.s
      At line 250 in file ..\..\output\bsp_spi_flash.s
      At line 252 in file ..\..\output\bsp_spi_flash.s
      At line 254 in file ..\..\output\bsp_spi_flash.s
      At line 256 in file ..\..\output\bsp_spi_flash.s
      At line 266 in file ..\..\output\bsp_spi_flash.s
      At line 289 in file ..\..\output\bsp_spi_flash.s
      At line 301 in file ..\..\output\bsp_spi_flash.s
      At line 303 in file ..\..\output\bsp_spi_flash.s
      At line 305 in file ..\..\output\bsp_spi_flash.s
      At line 307 in file ..\..\output\bsp_spi_flash.s
      At line 309 in file ..\..\output\bsp_spi_flash.s
      At line 326 in file ..\..\output\bsp_spi_flash.s
      At line 328 in file ..\..\output\bsp_spi_flash.s
      At line 331 in file ..\..\output\bsp_spi_flash.s
      At line 334 in file ..\..\output\bsp_spi_flash.s
      At line 358 in file ..\..\output\bsp_spi_flash.s
      At line 360 in file ..\..\output\bsp_spi_flash.s
      At line 362 in file ..\..\output\bsp_spi_flash.s
      At line 364 in file ..\..\output\bsp_spi_flash.s
      At line 493 in file ..\..\output\bsp_spi_flash.s
      At line 495 in file ..\..\output\bsp_spi_flash.s
      At line 497 in file ..\..\output\bsp_spi_flash.s
      At line 500 in file ..\..\output\bsp_spi_flash.s
      At line 515 in file ..\..\output\bsp_spi_flash.s
      At line 521 in file ..\..\output\bsp_spi_flash.s
      At line 549 in file ..\..\output\bsp_spi_flash.s
      At line 566 in file ..\..\output\bsp_spi_flash.s
      At line 583 in file ..\..\output\bsp_spi_flash.s
      At line 317 in file ..\\..\\Libraries\\CMSIS\\Include\\core_cmInstr.h

|i.SPI_FLASH_SendByte| 00000000

Symbol: |i.SPI_FLASH_SendByte|
   Definitions
      At line 373 in file ..\..\output\bsp_spi_flash.s
   Uses
      None
Comment: |i.SPI_FLASH_SendByte| unused
9 symbols



ARM Macro Assembler    Page 1 Alphabetic symbol ordering
Relocatable symbols

L10.100 00000064

Symbol: L10.100
   Definitions
      At line 479 in file ..\..\output\bsp_spi_flash.s
   Uses
      At line 436 in file ..\..\output\bsp_spi_flash.s
Comment: L10.100 used once
L10.104 00000068

Symbol: L10.104
   Definitions
      At line 481 in file ..\..\output\bsp_spi_flash.s
   Uses
      At line 439 in file ..\..\output\bsp_spi_flash.s
Comment: L10.104 used once
L10.18 00000012

Symbol: L10.18
   Definitions
      At line 441 in file ..\..\output\bsp_spi_flash.s
   Uses
      At line 454 in file ..\..\output\bsp_spi_flash.s
Comment: L10.18 used once
L10.36 00000024

Symbol: L10.36
   Definitions
      At line 449 in file ..\..\output\bsp_spi_flash.s
   Uses
      At line 440 in file ..\..\output\bsp_spi_flash.s
      At line 445 in file ..\..\output\bsp_spi_flash.s

L10.60 0000003C

Symbol: L10.60
   Definitions
      At line 460 in file ..\..\output\bsp_spi_flash.s
   Uses
      At line 473 in file ..\..\output\bsp_spi_flash.s
Comment: L10.60 used once
L10.78 0000004E

Symbol: L10.78
   Definitions
      At line 468 in file ..\..\output\bsp_spi_flash.s
   Uses
      At line 459 in file ..\..\output\bsp_spi_flash.s
      At line 464 in file ..\..\output\bsp_spi_flash.s

SPI_FLASH_SendHalfWord 00000000

Symbol: SPI_FLASH_SendHalfWord
   Definitions
      At line 433 in file ..\..\output\bsp_spi_flash.s
   Uses
      At line 318 in file ..\\..\\Libraries\\CMSIS\\Include\\core_cmInstr.h
Comment: SPI_FLASH_SendHalfWord used once
|i.SPI_FLASH_SendHalfWord| 00000000



ARM Macro Assembler    Page 2 Alphabetic symbol ordering
Relocatable symbols


Symbol: |i.SPI_FLASH_SendHalfWord|
   Definitions
      At line 431 in file ..\..\output\bsp_spi_flash.s
   Uses
      None
Comment: |i.SPI_FLASH_SendHalfWord| unused
8 symbols



ARM Macro Assembler    Page 1 Alphabetic symbol ordering
Relocatable symbols

L11.44 0000002C

Symbol: L11.44
   Definitions
      At line 504 in file ..\..\output\bsp_spi_flash.s
   Uses
      At line 489 in file ..\..\output\bsp_spi_flash.s
Comment: L11.44 used once
SPI_FLASH_StartReadSequence 00000000

Symbol: SPI_FLASH_StartReadSequence
   Definitions
      At line 486 in file ..\..\output\bsp_spi_flash.s
   Uses
      At line 319 in file ..\\..\\Libraries\\CMSIS\\Include\\core_cmInstr.h
Comment: SPI_FLASH_StartReadSequence used once
|i.SPI_FLASH_StartReadSequence| 00000000

Symbol: |i.SPI_FLASH_StartReadSequence|
   Definitions
      At line 484 in file ..\..\output\bsp_spi_flash.s
   Uses
      None
Comment: |i.SPI_FLASH_StartReadSequence| unused
3 symbols



ARM Macro Assembler    Page 1 Alphabetic symbol ordering
Relocatable symbols

L12.20 00000014

Symbol: L12.20
   Definitions
      At line 519 in file ..\..\output\bsp_spi_flash.s
   Uses
      At line 531 in file ..\..\output\bsp_spi_flash.s
Comment: L12.20 used once
L12.44 0000002C

Symbol: L12.44
   Definitions
      At line 529 in file ..\..\output\bsp_spi_flash.s
   Uses
      At line 525 in file ..\..\output\bsp_spi_flash.s
Comment: L12.44 used once
L12.52 00000034

Symbol: L12.52
   Definitions
      At line 536 in file ..\..\output\bsp_spi_flash.s
   Uses
      At line 511 in file ..\..\output\bsp_spi_flash.s
Comment: L12.52 used once
L12.56 00000038

Symbol: L12.56
   Definitions
      At line 538 in file ..\..\output\bsp_spi_flash.s
   Uses
      At line 516 in file ..\..\output\bsp_spi_flash.s
Comment: L12.56 used once
SPI_FLASH_WaitForWriteEnd 00000000

Symbol: SPI_FLASH_WaitForWriteEnd
   Definitions
      At line 509 in file ..\..\output\bsp_spi_flash.s
   Uses
      At line 148 in file ..\..\output\bsp_spi_flash.s
      At line 274 in file ..\..\output\bsp_spi_flash.s
      At line 353 in file ..\..\output\bsp_spi_flash.s
      At line 367 in file ..\..\output\bsp_spi_flash.s
      At line 320 in file ..\\..\\Libraries\\CMSIS\\Include\\core_cmInstr.h

|i.SPI_FLASH_WaitForWriteEnd| 00000000

Symbol: |i.SPI_FLASH_WaitForWriteEnd|
   Definitions
      At line 507 in file ..\..\output\bsp_spi_flash.s
   Uses
      None
Comment: |i.SPI_FLASH_WaitForWriteEnd| unused
6 symbols



ARM Macro Assembler    Page 1 Alphabetic symbol ordering
Relocatable symbols

L13.20 00000014

Symbol: L13.20
   Definitions
      At line 555 in file ..\..\output\bsp_spi_flash.s
   Uses
      At line 545 in file ..\..\output\bsp_spi_flash.s
Comment: L13.20 used once
SPI_FLASH_WriteEnable 00000000

Symbol: SPI_FLASH_WriteEnable
   Definitions
      At line 543 in file ..\..\output\bsp_spi_flash.s
   Uses
      At line 140 in file ..\..\output\bsp_spi_flash.s
      At line 245 in file ..\..\output\bsp_spi_flash.s
      At line 352 in file ..\..\output\bsp_spi_flash.s
      At line 321 in file ..\\..\\Libraries\\CMSIS\\Include\\core_cmInstr.h

|i.SPI_FLASH_WriteEnable| 00000000

Symbol: |i.SPI_FLASH_WriteEnable|
   Definitions
      At line 541 in file ..\..\output\bsp_spi_flash.s
   Uses
      None
Comment: |i.SPI_FLASH_WriteEnable| unused
3 symbols



ARM Macro Assembler    Page 1 Alphabetic symbol ordering
Relocatable symbols

L14.20 00000014

Symbol: L14.20
   Definitions
      At line 572 in file ..\..\output\bsp_spi_flash.s
   Uses
      At line 562 in file ..\..\output\bsp_spi_flash.s
Comment: L14.20 used once
SPI_Flash_PowerDown 00000000

Symbol: SPI_Flash_PowerDown
   Definitions
      At line 560 in file ..\..\output\bsp_spi_flash.s
   Uses
      At line 322 in file ..\\..\\Libraries\\CMSIS\\Include\\core_cmInstr.h
Comment: SPI_Flash_PowerDown used once
|i.SPI_Flash_PowerDown| 00000000

Symbol: |i.SPI_Flash_PowerDown|
   Definitions
      At line 558 in file ..\..\output\bsp_spi_flash.s
   Uses
      None
Comment: |i.SPI_Flash_PowerDown| unused
3 symbols



ARM Macro Assembler    Page 1 Alphabetic symbol ordering
Relocatable symbols

L15.20 00000014

Symbol: L15.20
   Definitions
      At line 589 in file ..\..\output\bsp_spi_flash.s
   Uses
      At line 579 in file ..\..\output\bsp_spi_flash.s
Comment: L15.20 used once
SPI_Flash_WAKEUP 00000000

Symbol: SPI_Flash_WAKEUP
   Definitions
      At line 577 in file ..\..\output\bsp_spi_flash.s
   Uses
      At line 323 in file ..\\..\\Libraries\\CMSIS\\Include\\core_cmInstr.h
Comment: SPI_Flash_WAKEUP used once
|i.SPI_Flash_WAKEUP| 00000000

Symbol: |i.SPI_Flash_WAKEUP|
   Definitions
      At line 575 in file ..\..\output\bsp_spi_flash.s
   Uses
      None
Comment: |i.SPI_Flash_WAKEUP| unused
3 symbols



ARM Macro Assembler    Page 1 Alphabetic symbol ordering
Relocatable symbols

L16.16 00000010

Symbol: L16.16
   Definitions
      At line 607 in file ..\..\output\bsp_spi_flash.s
   Uses
      At line 600 in file ..\..\output\bsp_spi_flash.s
Comment: L16.16 used once
SPI_TIMEOUT_UserCallback 00000000

Symbol: SPI_TIMEOUT_UserCallback
   Definitions
      At line 597 in file ..\..\output\bsp_spi_flash.s
   Uses
      At line 389 in file ..\..\output\bsp_spi_flash.s
      At line 410 in file ..\..\output\bsp_spi_flash.s
      At line 448 in file ..\..\output\bsp_spi_flash.s
      At line 467 in file ..\..\output\bsp_spi_flash.s
      At line 528 in file ..\..\output\bsp_spi_flash.s
      At line 351 in file ..\\..\\Libraries\\CMSIS\\Include\\core_cmInstr.h

|i.SPI_TIMEOUT_UserCallback| 00000000

Symbol: |i.SPI_TIMEOUT_UserCallback|
   Definitions
      At line 592 in file ..\..\output\bsp_spi_flash.s
   Uses
      None
Comment: |i.SPI_TIMEOUT_UserCallback| unused
3 symbols



ARM Macro Assembler    Page 1 Alphabetic symbol ordering
Relocatable symbols

L17.10 0000000A

Symbol: L17.10
   Definitions
      At line 620 in file ..\..\output\bsp_spi_flash.s
   Uses
      At line 631 in file ..\..\output\bsp_spi_flash.s
Comment: L17.10 used once
L17.40 00000028

Symbol: L17.40
   Definitions
      At line 635 in file ..\..\output\bsp_spi_flash.s
   Uses
      At line 618 in file ..\..\output\bsp_spi_flash.s
Comment: L17.40 used once
init_cfg 00000000

Symbol: init_cfg
   Definitions
      At line 614 in file ..\..\output\bsp_spi_flash.s
   Uses
      At line 324 in file ..\\..\\Libraries\\CMSIS\\Include\\core_cmInstr.h
Comment: init_cfg used once
|i.init_cfg| 00000000

Symbol: |i.init_cfg|
   Definitions
      At line 612 in file ..\..\output\bsp_spi_flash.s
   Uses
      None
Comment: |i.init_cfg| unused
4 symbols



ARM Macro Assembler    Page 1 Alphabetic symbol ordering
Relocatable symbols

L18.40 00000028

Symbol: L18.40
   Definitions
      At line 661 in file ..\..\output\bsp_spi_flash.s
   Uses
      At line 643 in file ..\..\output\bsp_spi_flash.s
Comment: L18.40 used once
set_adc 00000000

Symbol: set_adc
   Definitions
      At line 640 in file ..\..\output\bsp_spi_flash.s
   Uses
      At line 325 in file ..\\..\\Libraries\\CMSIS\\Include\\core_cmInstr.h
Comment: set_adc used once
|i.set_adc| 00000000

Symbol: |i.set_adc|
   Definitions
      At line 638 in file ..\..\output\bsp_spi_flash.s
   Uses
      None
Comment: |i.set_adc| unused
3 symbols



ARM Macro Assembler    Page 1 Alphabetic symbol ordering
Relocatable symbols

L19.20 00000014

Symbol: L19.20
   Definitions
      At line 678 in file ..\..\output\bsp_spi_flash.s
   Uses
      At line 668 in file ..\..\output\bsp_spi_flash.s
Comment: L19.20 used once
wakeup_sleep 00000000

Symbol: wakeup_sleep
   Definitions
      At line 666 in file ..\..\output\bsp_spi_flash.s
   Uses
      At line 326 in file ..\\..\\Libraries\\CMSIS\\Include\\core_cmInstr.h
Comment: wakeup_sleep used once
|i.wakeup_sleep| 00000000

Symbol: |i.wakeup_sleep|
   Definitions
      At line 664 in file ..\..\output\bsp_spi_flash.s
   Uses
      None
Comment: |i.wakeup_sleep| unused
3 symbols



ARM Macro Assembler    Page 1 Alphabetic symbol ordering
Relocatable symbols

|.arm_vfe_header| 00000000

Symbol: |.arm_vfe_header|
   Definitions
      At line 681 in file ..\..\output\bsp_spi_flash.s
   Uses
      None
Comment: |.arm_vfe_header| unused
1 symbol



ARM Macro Assembler    Page 1 Alphabetic symbol ordering
Relocatable symbols

cell_codes 00000000

Symbol: cell_codes
   Definitions
      At line 687 in file ..\..\output\bsp_spi_flash.s
   Uses
      At line 327 in file ..\\..\\Libraries\\CMSIS\\Include\\core_cmInstr.h
Comment: cell_codes used once
|.bss| 00000000

Symbol: |.bss|
   Definitions
      At line 685 in file ..\..\output\bsp_spi_flash.s
   Uses
      None
Comment: |.bss| unused
2 symbols



ARM Macro Assembler    Page 1 Alphabetic symbol ordering
Relocatable symbols

aux_codes 00000000

Symbol: aux_codes
   Definitions
      At line 693 in file ..\..\output\bsp_spi_flash.s
   Uses
      At line 328 in file ..\\..\\Libraries\\CMSIS\\Include\\core_cmInstr.h
Comment: aux_codes used once
|area_number.22| 00000000

Symbol: |area_number.22|
   Definitions
      At line 690 in file ..\..\output\bsp_spi_flash.s
   Uses
      None
Comment: |area_number.22| unused
2 symbols



ARM Macro Assembler    Page 1 Alphabetic symbol ordering
Relocatable symbols

TOTAL_IC 00000000

Symbol: TOTAL_IC
   Definitions
      At line 698 in file ..\..\output\bsp_spi_flash.s
   Uses
      At line 329 in file ..\\..\\Libraries\\CMSIS\\Include\\core_cmInstr.h
Comment: TOTAL_IC used once
|.constdata| 00000000

Symbol: |.constdata|
   Definitions
      At line 696 in file ..\..\output\bsp_spi_flash.s
   Uses
      None
Comment: |.constdata| unused
2 symbols



ARM Macro Assembler    Page 1 Alphabetic symbol ordering
Relocatable symbols

ADAX 00000002

Symbol: ADAX
   Definitions
      At line 705 in file ..\..\output\bsp_spi_flash.s
   Uses
      At line 331 in file ..\\..\\Libraries\\CMSIS\\Include\\core_cmInstr.h
Comment: ADAX used once
ADCV 00000000

Symbol: ADCV
   Definitions
      At line 703 in file ..\..\output\bsp_spi_flash.s
   Uses
      At line 330 in file ..\\..\\Libraries\\CMSIS\\Include\\core_cmInstr.h
Comment: ADCV used once
SPITimeout 00000004

Symbol: SPITimeout
   Definitions
      At line 707 in file ..\..\output\bsp_spi_flash.s
   Uses
      At line 352 in file ..\\..\\Libraries\\CMSIS\\Include\\core_cmInstr.h
Comment: SPITimeout used once
tx_cfg 00000008

Symbol: tx_cfg
   Definitions
      At line 709 in file ..\..\output\bsp_spi_flash.s
   Uses
      At line 332 in file ..\\..\\Libraries\\CMSIS\\Include\\core_cmInstr.h
Comment: tx_cfg used once
|.data| 00000000

Symbol: |.data|
   Definitions
      At line 701 in file ..\..\output\bsp_spi_flash.s
   Uses
      At line 427 in file ..\..\output\bsp_spi_flash.s
      At line 480 in file ..\..\output\bsp_spi_flash.s
      At line 539 in file ..\..\output\bsp_spi_flash.s
      At line 636 in file ..\..\output\bsp_spi_flash.s
      At line 662 in file ..\..\output\bsp_spi_flash.s

5 symbols



ARM Macro Assembler    Page 1 Alphabetic symbol ordering
Relocatable symbols

rx_cfg 00000000

Symbol: rx_cfg
   Definitions
      At line 716 in file ..\..\output\bsp_spi_flash.s
   Uses
      At line 333 in file ..\\..\\Libraries\\CMSIS\\Include\\core_cmInstr.h
Comment: rx_cfg used once
|area_number.26| 00000000

Symbol: |area_number.26|
   Definitions
      At line 713 in file ..\..\output\bsp_spi_flash.s
   Uses
      None
Comment: |area_number.26| unused
2 symbols



ARM Macro Assembler    Page 1 Alphabetic symbol ordering
Relocatable symbols

__asm___15_bsp_spi_flash_c_TOTAL_IC____REV16 00000000

Symbol: __asm___15_bsp_spi_flash_c_TOTAL_IC____REV16
   Definitions
      At line 129 in file ..\\..\\Libraries\\CMSIS\\Include\\core_cmInstr.h
   Uses
      At line 3 in file ..\\..\\User\\bsp\\spi\\bsp_spi_flash.c
Comment: __asm___15_bsp_spi_flash_c_TOTAL_IC____REV16 used once
|.rev16_text| 00000000

Symbol: |.rev16_text|
   Definitions
      At line 1 in file ..\\..\\User\\bsp\\spi\\bsp_spi_flash.c
   Uses
      None
Comment: |.rev16_text| unused
2 symbols



ARM Macro Assembler    Page 1 Alphabetic symbol ordering
Relocatable symbols

__asm___15_bsp_spi_flash_c_TOTAL_IC____REVSH 00000000

Symbol: __asm___15_bsp_spi_flash_c_TOTAL_IC____REVSH
   Definitions
      At line 144 in file ..\\..\\Libraries\\CMSIS\\Include\\core_cmInstr.h
   Uses
      At line 136 in file ..\\..\\Libraries\\CMSIS\\Include\\core_cmInstr.h
Comment: __asm___15_bsp_spi_flash_c_TOTAL_IC____REVSH used once
|.revsh_text| 00000000

Symbol: |.revsh_text|
   Definitions
      At line 134 in file ..\\..\\Libraries\\CMSIS\\Include\\core_cmInstr.h
   Uses
      None
Comment: |.revsh_text| unused
2 symbols



ARM Macro Assembler    Page 1 Alphabetic symbol ordering
Relocatable symbols

__asm___15_bsp_spi_flash_c_TOTAL_IC____RRX 00000000

Symbol: __asm___15_bsp_spi_flash_c_TOTAL_IC____RRX
   Definitions
      At line 300 in file ..\\..\\Libraries\\CMSIS\\Include\\core_cmInstr.h
   Uses
      At line 151 in file ..\\..\\Libraries\\CMSIS\\Include\\core_cmInstr.h
Comment: __asm___15_bsp_spi_flash_c_TOTAL_IC____RRX used once
|.rrx_text| 00000000

Symbol: |.rrx_text|
   Definitions
      At line 149 in file ..\\..\\Libraries\\CMSIS\\Include\\core_cmInstr.h
   Uses
      None
Comment: |.rrx_text| unused
2 symbols



ARM Macro Assembler    Page 1 Alphabetic symbol ordering
External symbols

Delay_10_us 00000000

Symbol: Delay_10_us
   Definitions
      At line 349 in file ..\\..\\Libraries\\CMSIS\\Include\\core_cmInstr.h
   Uses
      At line 672 in file ..\..\output\bsp_spi_flash.s
Comment: Delay_10_us used once
GPIO_Init 00000000

Symbol: GPIO_Init
   Definitions
      At line 339 in file ..\\..\\Libraries\\CMSIS\\Include\\core_cmInstr.h
   Uses
      At line 188 in file ..\..\output\bsp_spi_flash.s
      At line 193 in file ..\..\output\bsp_spi_flash.s
      At line 198 in file ..\..\output\bsp_spi_flash.s
      At line 205 in file ..\..\output\bsp_spi_flash.s

GPIO_PinAFConfig 00000000

Symbol: GPIO_PinAFConfig
   Definitions
      At line 338 in file ..\\..\\Libraries\\CMSIS\\Include\\core_cmInstr.h
   Uses
      At line 169 in file ..\..\output\bsp_spi_flash.s
      At line 173 in file ..\..\output\bsp_spi_flash.s
      At line 177 in file ..\..\output\bsp_spi_flash.s

RCC_AHB1PeriphClockCmd 00000000

Symbol: RCC_AHB1PeriphClockCmd
   Definitions
      At line 336 in file ..\\..\\Libraries\\CMSIS\\Include\\core_cmInstr.h
   Uses
      At line 161 in file ..\..\output\bsp_spi_flash.s
Comment: RCC_AHB1PeriphClockCmd used once
RCC_APB2PeriphClockCmd 00000000

Symbol: RCC_APB2PeriphClockCmd
   Definitions
      At line 337 in file ..\\..\\Libraries\\CMSIS\\Include\\core_cmInstr.h
   Uses
      At line 164 in file ..\..\output\bsp_spi_flash.s
Comment: RCC_APB2PeriphClockCmd used once
SPI_Cmd 00000000

Symbol: SPI_Cmd
   Definitions
      At line 341 in file ..\\..\\Libraries\\CMSIS\\Include\\core_cmInstr.h
   Uses
      At line 226 in file ..\..\output\bsp_spi_flash.s
Comment: SPI_Cmd used once
SPI_I2S_GetFlagStatus 00000000

Symbol: SPI_I2S_GetFlagStatus
   Definitions
      At line 346 in file ..\\..\\Libraries\\CMSIS\\Include\\core_cmInstr.h
   Uses



ARM Macro Assembler    Page 2 Alphabetic symbol ordering
External symbols

      At line 396 in file ..\..\output\bsp_spi_flash.s
      At line 416 in file ..\..\output\bsp_spi_flash.s
      At line 452 in file ..\..\output\bsp_spi_flash.s
      At line 471 in file ..\..\output\bsp_spi_flash.s

SPI_I2S_ReceiveData 00000000

Symbol: SPI_I2S_ReceiveData
   Definitions
      At line 348 in file ..\\..\\Libraries\\CMSIS\\Include\\core_cmInstr.h
   Uses
      At line 420 in file ..\..\output\bsp_spi_flash.s
      At line 476 in file ..\..\output\bsp_spi_flash.s

SPI_I2S_SendData 00000000

Symbol: SPI_I2S_SendData
   Definitions
      At line 347 in file ..\\..\\Libraries\\CMSIS\\Include\\core_cmInstr.h
   Uses
      At line 401 in file ..\..\output\bsp_spi_flash.s
      At line 457 in file ..\..\output\bsp_spi_flash.s

SPI_Init 00000000

Symbol: SPI_Init
   Definitions
      At line 340 in file ..\\..\\Libraries\\CMSIS\\Include\\core_cmInstr.h
   Uses
      At line 223 in file ..\..\output\bsp_spi_flash.s
Comment: SPI_Init used once
__2printf 00000000

Symbol: __2printf
   Definitions
      At line 345 in file ..\\..\\Libraries\\CMSIS\\Include\\core_cmInstr.h
   Uses
      At line 262 in file ..\..\output\bsp_spi_flash.s
      At line 601 in file ..\..\output\bsp_spi_flash.s

_printf_d 00000000

Symbol: _printf_d
   Definitions
      At line 343 in file ..\\..\\Libraries\\CMSIS\\Include\\core_cmInstr.h
   Uses
      At line 595 in file ..\..\output\bsp_spi_flash.s
Comment: _printf_d used once
_printf_int_dec 00000000

Symbol: _printf_int_dec
   Definitions
      At line 344 in file ..\\..\\Libraries\\CMSIS\\Include\\core_cmInstr.h
   Uses
      At line 596 in file ..\..\output\bsp_spi_flash.s
Comment: _printf_int_dec used once
_printf_percent 00000000

Symbol: _printf_percent



ARM Macro Assembler    Page 3 Alphabetic symbol ordering
External symbols

   Definitions
      At line 342 in file ..\\..\\Libraries\\CMSIS\\Include\\core_cmInstr.h
   Uses
      At line 594 in file ..\..\output\bsp_spi_flash.s
Comment: _printf_percent used once
|Lib$$Request$$armlib| 00000000

Symbol: |Lib$$Request$$armlib|
   Definitions
      At line 335 in file ..\\..\\Libraries\\CMSIS\\Include\\core_cmInstr.h
   Uses
      None
Comment: |Lib$$Request$$armlib| unused
15 symbols
457 symbols in table
